(lp0
S"\n      \\\\\n ,-~~~-\\\\_\n(        .\\\n@\\___(__--'\n"
p1
aS"\n      /\\\n     //\\\\       /\\\n    /'  \\\\     //\\\\\n         \\\\   //  `\\\n          \\\\ //\n         .-'^'-.\n       .' a___a `.\n      ==  (___)  ==\n       '. ._I_. .'\n   ____/.`-----'.\\____\n  [###(__)#####(__)###]\n   ~~|#############|~~\n     |#############|\n     |#############|\n     |#############|\n     |#############|\n     |#############|\n     |#############|\n     |#############|\n     ~~~~~~~~~~~~~~~\n"
p2
aS'\n            .--,_\n           / ,/ /\n          / // /\n         / // /\n       .\'  \' (\n      /       \\.-""\'-._\n     / a   \' .    \'    `-.\n    (       .  \'      "   `.\n     `-.-\'       "       \'  ;\n         `.\'  "  .  .-\'    " ;\n          : .     .\'          ;\n          `.   \' :     \'   \'  ;\n            )  _.". "     .  ";\n          .\'_.\'   .\'   \'  __.,`.\n         \'"      ""\'\'---\'`    "\'\n'
p3
aS'\n       __\n      / \\`\\          __\n      |  \\ `\\      /`/ \\\n      \\_/`\\  \\-"-/` /\\  \\\n           |       |  \\  |\n           (d     b)   \\_/\n           /       \\\n       ,".|.\'.\\_/.\'.|.",\n      /   /\\\' _|_ \'/\\   \\\n      |  /  \'-`"`-\'  \\  |\n      | |             | |\n      | \\    \\   /    / |\n       \\ \\    \\ /    / /\n        `"`\\   :   /\'"`\n            `""`""`\n'
p4
a.